Certificate:
    Data:
        Version: 3 (0x2)
        Serial Number:
            62:e8:7d:10:7e:2b:db:68:f1:5c:3c:d0:9b:a5:85:ed:ae:d5:11:2e
        Signature Algorithm: sha256WithRSAEncryption
        Issuer: C=US, ST=North Carolina, L=Wake Forest, O=Test Company, OU=CAI, CN=CAI Test Root/emailAddress=test@test.com
        Validity
            Not Before: Mar  7 14:41:07 2025 GMT
            Not After : Mar  6 14:41:07 2030 GMT
        Subject: CN=CAI Test Signing Cert, ST=North Carolina, C=US/emailAddress=test@caitest.com, O=CAI DEV, OU=CAI
        Subject Public Key Info:
            Public Key Algorithm: id-ecPublicKey
                Public-Key: (256 bit)
                pub:
                    04:e8:e9:3c:57:2a:89:e3:78:75:fd:3b:e6:8f:35:
                    b2:87:de:8f:60:78:03:61:57:d4:f9:58:7d:b5:59:
                    69:71:74:fb:f6:eb:be:b2:cc:fa:53:96:af:09:37:
                    9d:00:c2:91:28:f5:37:99:d4:1a:79:45:d2:4b:f5:
                    ed:39:a1:d0:a9
                ASN1 OID: prime256v1
                NIST CURVE: P-256
        X509v3 extensions:
            X509v3 Basic Constraints: 
                CA:FALSE
            Netscape Cert Type: 
                SSL Client, S/MIME
            Netscape Comment: 
                OpenSSL Generated Client Certificate
            X509v3 Subject Key Identifier: 
                9E:18:EB:CA:A9:25:E3:D3:4E:C6:C0:3B:CD:71:35:1D:F8:98:92:2D
            X509v3 Authority Key Identifier: 
                F4:03:D5:DB:72:38:14:A3:85:07:68:79:71:D3:82:E7:5D:86:08:70
            X509v3 Key Usage: critical
                Digital Signature, Non Repudiation, Key Encipherment
            X509v3 Extended Key Usage: 
                TLS Web Client Authentication, E-mail Protection
            Authority Information Access: 
                OCSP - URI:http://localhost:8081
    Signature Algorithm: sha256WithRSAEncryption
    Signature Value:
        36:33:58:b7:bd:4c:59:d1:31:b6:0f:c8:c0:8e:b7:37:f0:34:
        4b:ee:c7:2f:de:17:df:36:2a:60:cd:e3:1a:da:64:2a:3c:d5:
        bc:9d:16:ef:d8:73:d8:f4:06:a5:51:2c:54:aa:e8:12:df:d4:
        bd:90:70:7b:f5:e2:51:6c:16:c7:1b:12:41:4a:0b:bc:1b:68:
        d8:40:d8:91:e9:8e:75:9f:3a:11:da:6d:94:08:fc:4b:f7:cd:
        99:d5:c5:c2:a7:14:99:4d:f0:5b:36:b6:61:29:7a:6b:ca:af:
        fc:b2:32:31:4e:4e:09:2b:71:5d:dc:b3:a4:97:cf:93:45:b6:
        ad:74:1f:3d:44:a7:41:4f:c6:f6:11:29:94:c9:61:9c:0e:ee:
        81:ef:7b:48:86:c8:fe:96:80:3f:b4:42:12:4d:6e:35:11:de:
        76:53:d8:63:3f:5f:43:de:c8:35:d3:13:4e:c6:5c:f3:4a:5d:
        b3:b8:30:61:ef:3f:3e:01:d6:51:e9:5b:96:ea:5b:5e:2d:48:
        07:84:17:94:4c:9c:ce:8f:3b:84:15:6f:88:38:25:2c:3d:a3:
        6b:14:90:83:87:19:8c:18:18:12:ac:5b:5f:8a:58:24:59:b1:
        7a:42:0a:20:10:9b:d2:15:30:81:2f:01:0f:e4:e5:be:f4:5e:
        67:af:53:fa
-----BEGIN CERTIFICATE-----
MIID3DCCAsSgAwIBAgIUYuh9EH4r22jxXDzQm6WF7a7VES4wDQYJKoZIhvcNAQEL
BQAwgZcxCzAJBgNVBAYTAlVTMRcwFQYDVQQIDA5Ob3J0aCBDYXJvbGluYTEUMBIG
A1UEBwwLV2FrZSBGb3Jlc3QxFTATBgNVBAoMDFRlc3QgQ29tcGFueTEMMAoGA1UE
CwwDQ0FJMRYwFAYDVQQDDA1DQUkgVGVzdCBSb290MRwwGgYJKoZIhvcNAQkBFg10
ZXN0QHRlc3QuY29tMB4XDTI1MDMwNzE0NDEwN1oXDTMwMDMwNjE0NDEwN1owgYcx
HjAcBgNVBAMMFUNBSSBUZXN0IFNpZ25pbmcgQ2VydDEXMBUGA1UECAwOTm9ydGgg
Q2Fyb2xpbmExCzAJBgNVBAYTAlVTMR8wHQYJKoZIhvcNAQkBFhB0ZXN0QGNhaXRl
c3QuY29tMRAwDgYDVQQKDAdDQUkgREVWMQwwCgYDVQQLDANDQUkwWTATBgcqhkjO
PQIBBggqhkjOPQMBBwNCAATo6TxXKonjeHX9O+aPNbKH3o9geANhV9T5WH21WWlx
dPv2676yzPpTlq8JN50AwpEo9TeZ1Bp5RdJL9e05odCpo4H4MIH1MAkGA1UdEwQC
MAAwEQYJYIZIAYb4QgEBBAQDAgWgMDMGCWCGSAGG+EIBDQQmFiRPcGVuU1NMIEdl
bmVyYXRlZCBDbGllbnQgQ2VydGlmaWNhdGUwHQYDVR0OBBYEFJ4Y68qpJePTTsbA
O81xNR34mJItMB8GA1UdIwQYMBaAFPQD1dtyOBSjhQdoeXHTguddhghwMA4GA1Ud
DwEB/wQEAwIF4DAdBgNVHSUEFjAUBggrBgEFBQcDAgYIKwYBBQUHAwQwMQYIKwYB
BQUHAQEEJTAjMCEGCCsGAQUFBzABhhVodHRwOi8vbG9jYWxob3N0OjgwODEwDQYJ
KoZIhvcNAQELBQADggEBADYzWLe9TFnRMbYPyMCOtzfwNEvuxy/eF982KmDN4xra
ZCo81bydFu/Yc9j0BqVRLFSq6BLf1L2QcHv14lFsFscbEkFKC7wbaNhA2JHpjnWf
OhHabZQI/Ev3zZnVxcKnFJlN8Fs2tmEpemvKr/yyMjFOTgkrcV3cs6SXz5NFtq10
Hz1Ep0FPxvYRKZTJYZwO7oHve0iGyP6WgD+0QhJNbjUR3nZT2GM/X0PeyDXTE07G
XPNKXbO4MGHvPz4B1lHpW5bqW14tSAeEF5RMnM6PO4QVb4g4JSw9o2sUkIOHGYwY
GBKsW1+KWCRZsXpCCiAQm9IVMIEvAQ/k5b70XmevU/o=
-----END CERTIFICATE-----


-----BEGIN CERTIFICATE-----
MIIEETCCAvmgAwIBAgIUQtgcUTeypCI3eMh8t9WagNUssGowDQYJKoZIhvcNAQEL
BQAwgZcxCzAJBgNVBAYTAlVTMRcwFQYDVQQIDA5Ob3J0aCBDYXJvbGluYTEUMBIG
A1UEBwwLV2FrZSBGb3Jlc3QxFTATBgNVBAoMDFRlc3QgQ29tcGFueTEMMAoGA1UE
CwwDQ0FJMRYwFAYDVQQDDA1DQUkgVGVzdCBSb290MRwwGgYJKoZIhvcNAQkBFg10
ZXN0QHRlc3QuY29tMB4XDTI1MDMwNzE0MTEwNVoXDTM1MDMwNTE0MTEwNVowgZcx
CzAJBgNVBAYTAlVTMRcwFQYDVQQIDA5Ob3J0aCBDYXJvbGluYTEUMBIGA1UEBwwL
V2FrZSBGb3Jlc3QxFTATBgNVBAoMDFRlc3QgQ29tcGFueTEMMAoGA1UECwwDQ0FJ
MRYwFAYDVQQDDA1DQUkgVGVzdCBSb290MRwwGgYJKoZIhvcNAQkBFg10ZXN0QHRl
c3QuY29tMIIBIjANBgkqhkiG9w0BAQEFAAOCAQ8AMIIBCgKCAQEAuzBiFBdumwkX
DW+IiI1Ev7V/DP3+a19Ghk7BDmDExqInRKZfSTllb4StlRpYkXOdtlKvuKlPTlRW
5FaxpSIlr8mwS2qrDmVB9AABY/gNQePhpsco9vSyDxuZB/Ej5uK2KBAAsbRb0TEq
CnetwkM1rLICXSUYTrLyXq32cinchtp57Muil5E2UwUDKcOGDBwuEF1nL4hApuof
ZxS5mXjtgof30ewpjpZDxKyaq/ZUVRBcg4KAcjbIed0GWHZC+i5+HX1ljr10K17c
3S/dj+qhjdALbyjHYxy67Xf+F5efPW/nh5H8khwkP4jOlpOJpST+UsrYs+yY9nzA
8m1iXygfcQIDAQABo1MwUTAdBgNVHQ4EFgQU9APV23I4FKOFB2h5cdOC512GCHAw
HwYDVR0jBBgwFoAU9APV23I4FKOFB2h5cdOC512GCHAwDwYDVR0TAQH/BAUwAwEB
/zANBgkqhkiG9w0BAQsFAAOCAQEAWXg0wn04e3xps1oT/zQCT1zpTAIyru0tkNP+
u0t6zTLr7nCz4Tnskj0sHCmAJfQ+IqAkygOAL+ddldHDBF/m9lDEhH9jehKFQdzx
a3XGGfWMmivHUoiqjqZd5WC8WT7Jlq8kM3c/RTKLnDRD0RXvOzBcnkHirMk0eBy2
peON8I9TuNE5qfd4WhmJ6lq535xmSgFxmBr1tYeGnwJp5S67POYRSTppJiBR74Us
EAX7vtJ3zeNGzsNutNfauYitWs0zgx/fBPIfFIiDcE9qFJC7hFhvxIIvQnD0rXbW
Du7ZFbfymkIrAyNedou5JGfbT7S/hiEqWd+mI96jnH1zGjunoQ==
-----END CERTIFICATE-----
